target datalayout = "e-m:e-p270:32:32-p271:32:32-p272:64:64-i64:64-i128:128-f80:128-n8:16:32:64-S128"
target triple = "x86_64-unknown-linux-gnu"

%"class.sat::literal" = type { i32 }
%"class.sat::lookahead" = type { ptr, i32, %class.reslimit, %"struct.sat::lookahead::config", double, double, double, %class.svector.1, %class.svector.1, %class.svector.3, %class.vector.5, %class.svector.3, %class.svector.3, %class.vector.6, %class.svector.3, %class.small_object_allocator, %class.vector.7, %class.ptr_vector.8, %class.svector.3, i32, %class.svector.3, i32, %class.svector.3, i8, %class.svector.3, %class.vector.10, ptr, %class.svector.11, i32, i32, %class.svector.3, i32, i32, %class.vector.13, %class.svector.14, double, %class.svector.1, i32, i64, %class.svector.16, i32, %class.indexed_uint_set, i32, i32, %"struct.sat::lookahead::stats", %class.svector.18, %"struct.sat::lookahead::cube_state", i32, %class.svector.22, %class.tracked_uint_set, %"class.sat::literal", i32, i32, %"class.sat::literal", %class.vector.26, %"class.sat::literal", %class.svector.27 }
%class.reslimit = type { %"struct.std::atomic", i8, i64, i64, %class.svector, %class.ptr_vector }
%"struct.std::atomic" = type { %"struct.std::__atomic_base" }
%"struct.std::__atomic_base" = type { i32 }
%class.svector = type { %class.vector }
%class.vector = type { ptr }
%class.ptr_vector = type { %class.vector.0 }
%class.vector.0 = type { ptr }
%"struct.sat::lookahead::config" = type { double, double, double, i32, i32, i8, i32, double, i32, i32, i32, i32, i32, double, double, double, double, double }
%class.vector.5 = type { ptr }
%class.vector.6 = type { ptr }
%class.small_object_allocator = type { [32 x ptr], [32 x ptr], i64 }
%class.vector.7 = type { ptr }
%class.ptr_vector.8 = type { %class.vector.9 }
%class.vector.9 = type { ptr }
%class.vector.10 = type { ptr }
%class.svector.11 = type { %class.vector.12 }
%class.vector.12 = type { ptr }
%class.svector.3 = type { %class.vector.4 }
%class.vector.4 = type { ptr }
%class.vector.13 = type { ptr }
%class.svector.14 = type { %class.vector.15 }
%class.vector.15 = type { ptr }
%class.svector.1 = type { %class.vector.2 }
%class.vector.2 = type { ptr }
%class.svector.16 = type { %class.vector.17 }
%class.vector.17 = type { ptr }
%class.indexed_uint_set = type { i32, %class.svector.3, %class.svector.3 }
%"struct.sat::lookahead::stats" = type { i32, i32, i32, i32, i32, i32, i32, i32 }
%class.svector.18 = type { %class.vector.19 }
%class.vector.19 = type { ptr }
%"struct.sat::lookahead::cube_state" = type <{ i8, [7 x i8], %class.svector.20, %class.svector.1, double, double, i32, i32, i32, [4 x i8] }>
%class.svector.20 = type { %class.vector.21 }
%class.vector.21 = type { ptr }
%class.svector.22 = type { %class.vector.23 }
%class.vector.23 = type { ptr }
%class.tracked_uint_set = type { %class.svector.24, %class.svector.3 }
%class.svector.24 = type { %class.vector.25 }
%class.vector.25 = type { ptr }
%class.vector.26 = type { ptr }
%class.svector.27 = type { %class.vector.28 }
%class.vector.28 = type { ptr }
%"struct.sat::lookahead::dfs_info" = type { i32, i32, %"class.sat::literal", %"struct.sat::lookahead::arcs", i32, %"class.sat::literal", %"class.sat::literal", %"class.sat::literal" }
%"struct.sat::lookahead::arcs" = type { %class.svector.1 }

; Function Attrs: mustprogress nounwind uwtable
define linkonce_odr hidden noundef nonnull align 8 dereferenceable(40) ptr @_ZN6vectorIN3sat9lookahead8dfs_infoELb1EjEixEj(ptr noundef nonnull align 8 dereferenceable(8) %this, i32 noundef %idx) #4 comdat align 2 {
entry:
  %this.addr = alloca ptr, align 8
  %idx.addr = alloca i32, align 4
  store ptr %this, ptr %this.addr, align 8
  store i32 %idx, ptr %idx.addr, align 4
  %this1 = load ptr, ptr %this.addr, align 8
  %m_data = getelementptr inbounds %class.vector.26, ptr %this1, i32 0, i32 0
  %0 = load ptr, ptr %m_data, align 8
  %1 = load i32, ptr %idx.addr, align 4
  %idxprom = zext i32 %1 to i64
  %arrayidx = getelementptr inbounds %"struct.sat::lookahead::dfs_info", ptr %0, i64 %idxprom
  ret ptr %arrayidx
}

; Function Attrs: mustprogress nounwind uwtable
define linkonce_odr hidden noundef i32 @_ZNK3sat7literal5indexEv(ptr noundef nonnull align 4 dereferenceable(4) %this) #4 comdat align 2 {
entry:
  %this.addr = alloca ptr, align 8
  store ptr %this, ptr %this.addr, align 8
  %this1 = load ptr, ptr %this.addr, align 8
  %m_val = getelementptr inbounds %"class.sat::literal", ptr %this1, i32 0, i32 0
  %0 = load i32, ptr %m_val, align 4
  ret i32 %0
}

; Function Attrs: mustprogress uwtable
define linkonce_odr hidden void @_ZN3sat9lookahead7set_minENS_7literalES1_(ptr noundef nonnull align 8 dereferenceable(1160) %this, i32 %v.coerce, i32 %u.coerce) #5 comdat align 2 {
entry:
  %v = alloca %"class.sat::literal", align 4
  %u = alloca %"class.sat::literal", align 4
  %this.addr = alloca ptr, align 8
  %coerce.dive = getelementptr inbounds %"class.sat::literal", ptr %v, i32 0, i32 0
  store i32 %v.coerce, ptr %coerce.dive, align 4
  %coerce.dive1 = getelementptr inbounds %"class.sat::literal", ptr %u, i32 0, i32 0
  store i32 %u.coerce, ptr %coerce.dive1, align 4
  store ptr %this, ptr %this.addr, align 8
  %this2 = load ptr, ptr %this.addr, align 8
  %m_dfs = getelementptr inbounds %"class.sat::lookahead", ptr %this2, i32 0, i32 54
  %call = call noundef i32 @_ZNK3sat7literal5indexEv(ptr noundef nonnull align 4 dereferenceable(4) %v)
  %call3 = call noundef nonnull align 8 dereferenceable(40) ptr @_ZN6vectorIN3sat9lookahead8dfs_infoELb1EjEixEj(ptr noundef nonnull align 8 dereferenceable(8) %m_dfs, i32 noundef %call)
  %m_min = getelementptr inbounds %"struct.sat::lookahead::dfs_info", ptr %call3, i32 0, i32 6
  call void @llvm.memcpy.p0.p0.i64(ptr align 8 %m_min, ptr align 4 %u, i64 4, i1 false)
  ret void
}

; Function Attrs: mustprogress uwtable
define linkonce_odr hidden void @_ZN3sat9lookahead8set_linkENS_7literalES1_(ptr noundef nonnull align 8 dereferenceable(1160) %this, i32 %v.coerce, i32 %u.coerce) #5 comdat align 2 {
entry:
  %v = alloca %"class.sat::literal", align 4
  %u = alloca %"class.sat::literal", align 4
  %this.addr = alloca ptr, align 8
  %coerce.dive = getelementptr inbounds %"class.sat::literal", ptr %v, i32 0, i32 0
  store i32 %v.coerce, ptr %coerce.dive, align 4
  %coerce.dive1 = getelementptr inbounds %"class.sat::literal", ptr %u, i32 0, i32 0
  store i32 %u.coerce, ptr %coerce.dive1, align 4
  store ptr %this, ptr %this.addr, align 8
  %this2 = load ptr, ptr %this.addr, align 8
  %m_dfs = getelementptr inbounds %"class.sat::lookahead", ptr %this2, i32 0, i32 54
  %call = call noundef i32 @_ZNK3sat7literal5indexEv(ptr noundef nonnull align 4 dereferenceable(4) %v)
  %call3 = call noundef nonnull align 8 dereferenceable(40) ptr @_ZN6vectorIN3sat9lookahead8dfs_infoELb1EjEixEj(ptr noundef nonnull align 8 dereferenceable(8) %m_dfs, i32 noundef %call)
  %m_link = getelementptr inbounds %"struct.sat::lookahead::dfs_info", ptr %call3, i32 0, i32 5
  call void @llvm.memcpy.p0.p0.i64(ptr align 4 %m_link, ptr align 4 %u, i64 4, i1 false)
  ret void
}

; Function Attrs: mustprogress uwtable
define linkonce_odr hidden void @_ZN3sat9lookahead8set_rankENS_7literalEj(ptr noundef nonnull align 8 dereferenceable(1160) %this, i32 %v.coerce, i32 noundef %r) #5 comdat align 2 {
entry:
  %v = alloca %"class.sat::literal", align 4
  %this.addr = alloca ptr, align 8
  %r.addr = alloca i32, align 4
  %coerce.dive = getelementptr inbounds %"class.sat::literal", ptr %v, i32 0, i32 0
  store i32 %v.coerce, ptr %coerce.dive, align 4
  store ptr %this, ptr %this.addr, align 8
  store i32 %r, ptr %r.addr, align 4
  %this1 = load ptr, ptr %this.addr, align 8
  %0 = load i32, ptr %r.addr, align 4
  %m_dfs = getelementptr inbounds %"class.sat::lookahead", ptr %this1, i32 0, i32 54
  %call = call noundef i32 @_ZNK3sat7literal5indexEv(ptr noundef nonnull align 4 dereferenceable(4) %v)
  %call2 = call noundef nonnull align 8 dereferenceable(40) ptr @_ZN6vectorIN3sat9lookahead8dfs_infoELb1EjEixEj(ptr noundef nonnull align 8 dereferenceable(8) %m_dfs, i32 noundef %call)
  %m_rank = getelementptr inbounds %"struct.sat::lookahead::dfs_info", ptr %call2, i32 0, i32 0
  store i32 %0, ptr %m_rank, align 8
  ret void
}

; Function Attrs: mustprogress uwtable
define hidden void @_ZN3sat9lookahead12activate_sccENS_7literalE(ptr noundef nonnull align 8 dereferenceable(1160) %this, i32 %l.coerce) #5 align 2 {
entry:
  %l = alloca %"class.sat::literal", align 4
  %this.addr = alloca ptr, align 8
  %agg.tmp = alloca %"class.sat::literal", align 4
  %agg.tmp3 = alloca %"class.sat::literal", align 4
  %agg.tmp4 = alloca %"class.sat::literal", align 4
  %agg.tmp7 = alloca %"class.sat::literal", align 4
  %agg.tmp8 = alloca %"class.sat::literal", align 4
  %coerce.dive = getelementptr inbounds %"class.sat::literal", ptr %l, i32 0, i32 0
  store i32 %l.coerce, ptr %coerce.dive, align 4
  store ptr %this, ptr %this.addr, align 8
  %this1 = load ptr, ptr %this.addr, align 8
  call void @llvm.memcpy.p0.p0.i64(ptr align 4 %agg.tmp, ptr align 4 %l, i64 4, i1 false)
  %m_rank = getelementptr inbounds %"class.sat::lookahead", ptr %this1, i32 0, i32 51
  %0 = load i32, ptr %m_rank, align 4
  %inc = add i32 %0, 1
  store i32 %inc, ptr %m_rank, align 4
  %coerce.dive2 = getelementptr inbounds %"class.sat::literal", ptr %agg.tmp, i32 0, i32 0
  %1 = load i32, ptr %coerce.dive2, align 4
  call void @_ZN3sat9lookahead8set_rankENS_7literalEj(ptr noundef nonnull align 8 dereferenceable(1160) %this1, i32 %1, i32 noundef %inc)
  call void @llvm.memcpy.p0.p0.i64(ptr align 4 %agg.tmp3, ptr align 4 %l, i64 4, i1 false)
  %m_active = getelementptr inbounds %"class.sat::lookahead", ptr %this1, i32 0, i32 50
  call void @llvm.memcpy.p0.p0.i64(ptr align 4 %agg.tmp4, ptr align 8 %m_active, i64 4, i1 false)
  %coerce.dive5 = getelementptr inbounds %"class.sat::literal", ptr %agg.tmp3, i32 0, i32 0
  %2 = load i32, ptr %coerce.dive5, align 4
  %coerce.dive6 = getelementptr inbounds %"class.sat::literal", ptr %agg.tmp4, i32 0, i32 0
  %3 = load i32, ptr %coerce.dive6, align 4
  call void @_ZN3sat9lookahead8set_linkENS_7literalES1_(ptr noundef nonnull align 8 dereferenceable(1160) %this1, i32 %2, i32 %3)
  call void @llvm.memcpy.p0.p0.i64(ptr align 4 %agg.tmp7, ptr align 4 %l, i64 4, i1 false)
  call void @llvm.memcpy.p0.p0.i64(ptr align 4 %agg.tmp8, ptr align 4 %l, i64 4, i1 false)
  %coerce.dive9 = getelementptr inbounds %"class.sat::literal", ptr %agg.tmp7, i32 0, i32 0
  %4 = load i32, ptr %coerce.dive9, align 4
  %coerce.dive10 = getelementptr inbounds %"class.sat::literal", ptr %agg.tmp8, i32 0, i32 0
  %5 = load i32, ptr %coerce.dive10, align 4
  call void @_ZN3sat9lookahead7set_minENS_7literalES1_(ptr noundef nonnull align 8 dereferenceable(1160) %this1, i32 %4, i32 %5)
  %m_active11 = getelementptr inbounds %"class.sat::lookahead", ptr %this1, i32 0, i32 50
  call void @llvm.memcpy.p0.p0.i64(ptr align 8 %m_active11, ptr align 4 %l, i64 4, i1 false)
  ret void
}