; Function Attrs: mustprogress nofree norecurse nosync nounwind willreturn memory(write, argmem: readwrite, inaccessiblemem: none) uwtable
define hidden void @_ZN3sat9lookahead12activate_sccENS_7literalE(ptr nocapture noundef nonnull align 8 dereferenceable(1160) %this, i32 %l.coerce) local_unnamed_addr #14 align 2 {
entry:
  %m_rank = getelementptr inbounds i8, ptr %this, i64 1124
  %0 = load i32, ptr %m_rank, align 4
  %inc = add i32 %0, 1
  store i32 %inc, ptr %m_rank, align 4
  %m_dfs.i = getelementptr inbounds i8, ptr %this, i64 1136
  %1 = load ptr, ptr %m_dfs.i, align 8
  %idxprom.i.i = zext i32 %l.coerce to i64
  %arrayidx.i.i = getelementptr inbounds %"struct.sat::lookahead::dfs_info", ptr %1, i64 %idxprom.i.i
  store i32 %inc, ptr %arrayidx.i.i, align 8
  %m_active = getelementptr inbounds i8, ptr %this, i64 1120
  %agg.tmp4.sroa.0.0.copyload = load i32, ptr %m_active, align 8
  %2 = load ptr, ptr %m_dfs.i, align 8
  %m_link.i = getelementptr inbounds %"struct.sat::lookahead::dfs_info", ptr %2, i64 %idxprom.i.i, i32 5
  store i32 %agg.tmp4.sroa.0.0.copyload, ptr %m_link.i, align 4
  %3 = load ptr, ptr %m_dfs.i, align 8
  %m_min.i = getelementptr inbounds %"struct.sat::lookahead::dfs_info", ptr %3, i64 %idxprom.i.i, i32 6
  store i32 %l.coerce, ptr %m_min.i, align 8
  store i32 %l.coerce, ptr %m_active, align 8
  ret void
}